target datalayout = "e-m:e-p270:32:32-p271:32:32-p272:64:64-i64:64-i128:128-f80:128-n8:16:32:64-S128"
target triple = "x86_64-pc-linux-gnu"

%struct.commandDocs = type { ptr, ptr, ptr, ptr, i32, ptr, ptr, ptr }
%struct.helpEntry = type { i32, i32, ptr, ptr, %struct.commandDocs }

@.str.140 = private unnamed_addr constant [2 x i8] c" \00", align 1

; Function Attrs: nounwind uwtable
define internal void @cliFillInCommandHelpEntry(ptr noundef %0, ptr noundef %1, ptr noundef %2) #0 {
  %4 = alloca ptr, align 8
  %5 = alloca ptr, align 8
  %6 = alloca ptr, align 8
  %7 = alloca ptr, align 8
  %8 = alloca ptr, align 8
  store ptr %0, ptr %4, align 8, !tbaa !16
  store ptr %1, ptr %5, align 8, !tbaa !5
  store ptr %2, ptr %6, align 8, !tbaa !5
  %9 = load ptr, ptr %6, align 8, !tbaa !5
  %10 = icmp ne ptr %9, null
  %11 = select i1 %10, i32 2, i32 1
  %12 = load ptr, ptr %4, align 8, !tbaa !16
  %13 = getelementptr inbounds nuw %struct.helpEntry, ptr %12, i32 0, i32 1
  store i32 %11, ptr %13, align 4, !tbaa !31
  %14 = load ptr, ptr %4, align 8, !tbaa !16
  %15 = getelementptr inbounds nuw %struct.helpEntry, ptr %14, i32 0, i32 1
  %16 = load i32, ptr %15, align 4, !tbaa !31
  %17 = sext i32 %16 to i64
  %18 = mul i64 8, %17
  %19 = call noalias ptr @zmalloc(i64 noundef %18) #18
  %20 = load ptr, ptr %4, align 8, !tbaa !16
  %21 = getelementptr inbounds nuw %struct.helpEntry, ptr %20, i32 0, i32 2
  store ptr %19, ptr %21, align 8, !tbaa !32
  %22 = load ptr, ptr %5, align 8, !tbaa !5
  %23 = call ptr @hi_sdsnew(ptr noundef %22)
  %24 = load ptr, ptr %4, align 8, !tbaa !16
  %25 = getelementptr inbounds nuw %struct.helpEntry, ptr %24, i32 0, i32 2
  %26 = load ptr, ptr %25, align 8, !tbaa !32
  %27 = getelementptr inbounds ptr, ptr %26, i64 0
  store ptr %23, ptr %27, align 8, !tbaa !5
  %28 = load ptr, ptr %4, align 8, !tbaa !16
  %29 = getelementptr inbounds nuw %struct.helpEntry, ptr %28, i32 0, i32 2
  %30 = load ptr, ptr %29, align 8, !tbaa !32
  %31 = getelementptr inbounds ptr, ptr %30, i64 0
  %32 = load ptr, ptr %31, align 8, !tbaa !5
  call void @hi_sdstoupper(ptr noundef %32)
  %33 = load ptr, ptr %6, align 8, !tbaa !5
  %34 = icmp ne ptr %33, null
  br i1 %34, label %35, label %61

35:                                               ; preds = %3
  call void @llvm.lifetime.start.p0(i64 8, ptr %7) #15
  %36 = load ptr, ptr %6, align 8, !tbaa !5
  %37 = call ptr @strchr(ptr noundef %36, i32 noundef 124) #16
  store ptr %37, ptr %7, align 8, !tbaa !5
  %38 = load ptr, ptr %7, align 8, !tbaa !5
  %39 = icmp ne ptr %38, null
  br i1 %39, label %40, label %48

40:                                               ; preds = %35
  %41 = load ptr, ptr %7, align 8, !tbaa !5
  %42 = getelementptr inbounds i8, ptr %41, i64 1
  %43 = call ptr @hi_sdsnew(ptr noundef %42)
  %44 = load ptr, ptr %4, align 8, !tbaa !16
  %45 = getelementptr inbounds nuw %struct.helpEntry, ptr %44, i32 0, i32 2
  %46 = load ptr, ptr %45, align 8, !tbaa !32
  %47 = getelementptr inbounds ptr, ptr %46, i64 1
  store ptr %43, ptr %47, align 8, !tbaa !5
  br label %55

48:                                               ; preds = %35
  %49 = load ptr, ptr %6, align 8, !tbaa !5
  %50 = call ptr @hi_sdsnew(ptr noundef %49)
  %51 = load ptr, ptr %4, align 8, !tbaa !16
  %52 = getelementptr inbounds nuw %struct.helpEntry, ptr %51, i32 0, i32 2
  %53 = load ptr, ptr %52, align 8, !tbaa !32
  %54 = getelementptr inbounds ptr, ptr %53, i64 1
  store ptr %50, ptr %54, align 8, !tbaa !5
  br label %55

55:                                               ; preds = %48, %40
  %56 = load ptr, ptr %4, align 8, !tbaa !16
  %57 = getelementptr inbounds nuw %struct.helpEntry, ptr %56, i32 0, i32 2
  %58 = load ptr, ptr %57, align 8, !tbaa !32
  %59 = getelementptr inbounds ptr, ptr %58, i64 1
  %60 = load ptr, ptr %59, align 8, !tbaa !5
  call void @hi_sdstoupper(ptr noundef %60)
  call void @llvm.lifetime.end.p0(i64 8, ptr %7) #15
  br label %61

61:                                               ; preds = %55, %3
  call void @llvm.lifetime.start.p0(i64 8, ptr %8) #15
  %62 = load ptr, ptr %4, align 8, !tbaa !16
  %63 = getelementptr inbounds nuw %struct.helpEntry, ptr %62, i32 0, i32 2
  %64 = load ptr, ptr %63, align 8, !tbaa !32
  %65 = getelementptr inbounds ptr, ptr %64, i64 0
  %66 = load ptr, ptr %65, align 8, !tbaa !5
  %67 = call ptr @hi_sdsnew(ptr noundef %66)
  store ptr %67, ptr %8, align 8, !tbaa !5
  %68 = load ptr, ptr %6, align 8, !tbaa !5
  %69 = icmp ne ptr %68, null
  br i1 %69, label %70, label %80

70:                                               ; preds = %61
  %71 = load ptr, ptr %8, align 8, !tbaa !5
  %72 = call ptr @hi_sdscat(ptr noundef %71, ptr noundef @.str.140)
  store ptr %72, ptr %8, align 8, !tbaa !5
  %73 = load ptr, ptr %8, align 8, !tbaa !5
  %74 = load ptr, ptr %4, align 8, !tbaa !16
  %75 = getelementptr inbounds nuw %struct.helpEntry, ptr %74, i32 0, i32 2
  %76 = load ptr, ptr %75, align 8, !tbaa !32
  %77 = getelementptr inbounds ptr, ptr %76, i64 1
  %78 = load ptr, ptr %77, align 8, !tbaa !5
  %79 = call ptr @hi_sdscat(ptr noundef %73, ptr noundef %78)
  store ptr %79, ptr %8, align 8, !tbaa !5
  br label %80

80:                                               ; preds = %70, %61
  %81 = load ptr, ptr %8, align 8, !tbaa !5
  %82 = load ptr, ptr %4, align 8, !tbaa !16
  %83 = getelementptr inbounds nuw %struct.helpEntry, ptr %82, i32 0, i32 3
  store ptr %81, ptr %83, align 8, !tbaa !17
  %84 = load ptr, ptr %4, align 8, !tbaa !16
  %85 = getelementptr inbounds nuw %struct.helpEntry, ptr %84, i32 0, i32 0
  store i32 1, ptr %85, align 8, !tbaa !33
  %86 = load ptr, ptr %4, align 8, !tbaa !16
  %87 = getelementptr inbounds nuw %struct.helpEntry, ptr %86, i32 0, i32 3
  %88 = load ptr, ptr %87, align 8, !tbaa !17
  %89 = load ptr, ptr %4, align 8, !tbaa !16
  %90 = getelementptr inbounds nuw %struct.helpEntry, ptr %89, i32 0, i32 4
  %91 = getelementptr inbounds nuw %struct.commandDocs, ptr %90, i32 0, i32 0
  store ptr %88, ptr %91, align 8, !tbaa !34
  %92 = load ptr, ptr %4, align 8, !tbaa !16
  %93 = getelementptr inbounds nuw %struct.helpEntry, ptr %92, i32 0, i32 4
  %94 = getelementptr inbounds nuw %struct.commandDocs, ptr %93, i32 0, i32 7
  store ptr null, ptr %94, align 8, !tbaa !35
  %95 = load ptr, ptr %4, align 8, !tbaa !16
  %96 = getelementptr inbounds nuw %struct.helpEntry, ptr %95, i32 0, i32 4
  %97 = getelementptr inbounds nuw %struct.commandDocs, ptr %96, i32 0, i32 5
  store ptr null, ptr %97, align 8, !tbaa !36
  %98 = load ptr, ptr %4, align 8, !tbaa !16
  %99 = getelementptr inbounds nuw %struct.helpEntry, ptr %98, i32 0, i32 4
  %100 = getelementptr inbounds nuw %struct.commandDocs, ptr %99, i32 0, i32 4
  store i32 0, ptr %100, align 8, !tbaa !37
  %101 = load ptr, ptr %4, align 8, !tbaa !16
  %102 = getelementptr inbounds nuw %struct.helpEntry, ptr %101, i32 0, i32 4
  %103 = getelementptr inbounds nuw %struct.commandDocs, ptr %102, i32 0, i32 3
  store ptr null, ptr %103, align 8, !tbaa !39
  call void @llvm.lifetime.end.p0(i64 8, ptr %8) #15
  ret void
}