; Function Attrs: nounwind uwtable
define internal fastcc void @cliFillInCommandHelpEntry(ptr noundef captures(none) initializes((0, 32), (48, 60), (64, 72), (80, 88)) %0, ptr noundef %1, ptr noundef %2) unnamed_addr #0 {
  %.not = icmp eq ptr %2, null
  %4 = select i1 %.not, i32 1, i32 2
  %5 = getelementptr inbounds nuw i8, ptr %0, i64 4
  store i32 %4, ptr %5, align 4, !tbaa !217
  %6 = shl nuw nsw i32 %4, 3
  %7 = zext nneg i32 %6 to i64
  %8 = tail call noalias ptr @zmalloc(i64 noundef %7) #37
  %9 = getelementptr inbounds nuw i8, ptr %0, i64 8
  store ptr %8, ptr %9, align 8, !tbaa !215
  %10 = tail call ptr @hi_sdsnew(ptr noundef %1) #33
  %11 = load ptr, ptr %9, align 8, !tbaa !215
  store ptr %10, ptr %11, align 8, !tbaa !24
  tail call void @hi_sdstoupper(ptr noundef %10) #33
  br i1 %.not, label %.thread, label %15

.thread:                                          ; preds = %3
  %12 = load ptr, ptr %9, align 8, !tbaa !215
  %13 = load ptr, ptr %12, align 8, !tbaa !24
  %14 = tail call ptr @hi_sdsnew(ptr noundef %13) #33
  br label %29

15:                                               ; preds = %3
  %16 = tail call ptr @strchr(ptr noundef nonnull dereferenceable(1) %2, i32 noundef 124) #35
  %.not31 = icmp eq ptr %16, null
  %17 = getelementptr inbounds nuw i8, ptr %16, i64 1
  %.sink34 = select i1 %.not31, ptr %2, ptr %17
  %18 = tail call ptr @hi_sdsnew(ptr noundef nonnull %.sink34) #33
  %19 = load ptr, ptr %9, align 8, !tbaa !215
  %20 = getelementptr inbounds nuw i8, ptr %19, i64 8
  store ptr %18, ptr %20, align 8, !tbaa !24
  tail call void @hi_sdstoupper(ptr noundef %18) #33
  %21 = load ptr, ptr %9, align 8, !tbaa !215
  %22 = load ptr, ptr %21, align 8, !tbaa !24
  %23 = tail call ptr @hi_sdsnew(ptr noundef %22) #33
  %24 = tail call ptr @hi_sdscat(ptr noundef %23, ptr noundef nonnull @.str.140) #33
  %25 = load ptr, ptr %9, align 8, !tbaa !215
  %26 = getelementptr inbounds nuw i8, ptr %25, i64 8
  %27 = load ptr, ptr %26, align 8, !tbaa !24
  %28 = tail call ptr @hi_sdscat(ptr noundef %24, ptr noundef %27) #33
  br label %29

29:                                               ; preds = %.thread, %15
  %.0 = phi ptr [ %28, %15 ], [ %14, %.thread ]
  %30 = getelementptr inbounds nuw i8, ptr %0, i64 16
  store ptr %.0, ptr %30, align 8, !tbaa !12
  store i32 1, ptr %0, align 8, !tbaa !218
  %31 = getelementptr inbounds nuw i8, ptr %0, i64 24
  store ptr %.0, ptr %31, align 8, !tbaa !219
  %32 = getelementptr inbounds nuw i8, ptr %0, i64 80
  store ptr null, ptr %32, align 8, !tbaa !43
  %33 = getelementptr inbounds nuw i8, ptr %0, i64 64
  store ptr null, ptr %33, align 8, !tbaa !41
  %34 = getelementptr inbounds nuw i8, ptr %0, i64 56
  store i32 0, ptr %34, align 8, !tbaa !42
  %35 = getelementptr inbounds nuw i8, ptr %0, i64 48
  store ptr null, ptr %35, align 8, !tbaa !39
  ret void
}